; Function Attrs: nofree norecurse nosync nounwind memory(read, inaccessiblemem: none) uwtable
define range(i32 0, 2) i32 @Gia_ManHasNoEquivs(ptr noundef readonly captures(none) %0) local_unnamed_addr #4 {
  %2 = getelementptr inbounds nuw i8, ptr %0, i64 192
  %3 = load ptr, ptr %2, align 8, !tbaa !49
  %4 = icmp eq ptr %3, null
  br i1 %4, label %16, label %.preheader

.preheader:                                       ; preds = %1
  %5 = getelementptr inbounds nuw i8, ptr %0, i64 24
  %6 = load i32, ptr %5, align 8, !tbaa !12
  %7 = icmp sgt i32 %6, 0
  br i1 %7, label %.lr.ph, label %.critedge

.lr.ph:                                           ; preds = %.preheader
  %8 = getelementptr i8, ptr %0, i64 32
  %.val12 = load ptr, ptr %8, align 8, !tbaa !36
  %.not = icmp eq ptr %.val12, null
  br i1 %.not, label %.critedge, label %.lr.ph.split.preheader

.lr.ph.split.preheader:                           ; preds = %.lr.ph
  %wide.trip.count = zext nneg i32 %6 to i64
  br label %.lr.ph.split

.lr.ph.split:                                     ; preds = %.lr.ph.split.preheader, %Gia_ObjReprObj.exit.thread
  %indvars.iv = phi i64 [ 0, %.lr.ph.split.preheader ], [ %indvars.iv.next, %Gia_ObjReprObj.exit.thread ]
  %9 = getelementptr inbounds nuw %struct.Gia_Rpr_t_, ptr %3, i64 %indvars.iv
  %10 = load i32, ptr %9, align 4
  %11 = and i32 %10, 268435455
  %12 = icmp eq i32 %11, 268435455
  br i1 %12, label %Gia_ObjReprObj.exit.thread, label %.critedge.loopexit.split.loop.exit

Gia_ObjReprObj.exit.thread:                       ; preds = %.lr.ph.split
  %indvars.iv.next = add nuw nsw i64 %indvars.iv, 1
  %exitcond.not = icmp eq i64 %indvars.iv.next, %wide.trip.count
  br i1 %exitcond.not, label %.critedge, label %.lr.ph.split, !llvm.loop !169

.critedge.loopexit.split.loop.exit:               ; preds = %.lr.ph.split
  %13 = trunc nuw nsw i64 %indvars.iv to i32
  br label %.critedge

.critedge:                                        ; preds = %Gia_ObjReprObj.exit.thread, %.critedge.loopexit.split.loop.exit, %.lr.ph, %.preheader
  %.0.lcssa = phi i32 [ 0, %.preheader ], [ 0, %.lr.ph ], [ %13, %.critedge.loopexit.split.loop.exit ], [ %6, %Gia_ObjReprObj.exit.thread ]
  %14 = icmp eq i32 %.0.lcssa, %6
  %15 = zext i1 %14 to i32
  br label %16

16:                                               ; preds = %1, %.critedge
  %.010 = phi i32 [ %15, %.critedge ], [ 1, %1 ]
  ret i32 %.010
}